; Function Attrs: nounwind uwtable
define range(i32 0, 2) i32 @Abc_NtkCheckUniqueCiNames(ptr noundef readonly captures(none) %0) local_unnamed_addr #0 {
  %2 = getelementptr i8, ptr %0, i64 56
  %.val24 = load ptr, ptr %2, align 8, !tbaa !33
  %3 = getelementptr i8, ptr %.val24, i64 4
  %.val24.val = load i32, ptr %3, align 4, !tbaa !30
  %4 = tail call noalias dereferenceable_or_null(16) ptr @malloc(i64 noundef 16) #13
  %5 = add i32 %.val24.val, -1
  %or.cond.i = icmp ult i32 %5, 7
  %spec.store.select.i = select i1 %or.cond.i, i32 8, i32 %.val24.val
  %6 = getelementptr inbounds nuw i8, ptr %4, i64 4
  store i32 0, ptr %6, align 4, !tbaa !30
  store i32 %spec.store.select.i, ptr %4, align 8, !tbaa !84
  %.not.i = icmp eq i32 %spec.store.select.i, 0
  br i1 %.not.i, label %Vec_PtrAlloc.exit, label %7

7:                                                ; preds = %1
  %8 = sext i32 %spec.store.select.i to i64
  %9 = shl nsw i64 %8, 3
  %10 = tail call noalias ptr @malloc(i64 noundef %9) #13
  br label %Vec_PtrAlloc.exit

Vec_PtrAlloc.exit:                                ; preds = %1, %7
  %11 = phi ptr [ %10, %7 ], [ null, %1 ]
  %12 = getelementptr inbounds nuw i8, ptr %4, i64 8
  store ptr %11, ptr %12, align 8, !tbaa !38
  %13 = icmp sgt i32 %.val24.val, 0
  br i1 %13, label %.lr.ph, label %Vec_PtrSort.exit

.lr.ph:                                           ; preds = %Vec_PtrAlloc.exit, %Vec_PtrPush.exit
  %14 = phi i32 [ %41, %Vec_PtrPush.exit ], [ %spec.store.select.i, %Vec_PtrAlloc.exit ]
  %15 = phi i32 [ %43, %Vec_PtrPush.exit ], [ 0, %Vec_PtrAlloc.exit ]
  %indvars.iv = phi i64 [ %indvars.iv.next, %Vec_PtrPush.exit ], [ 0, %Vec_PtrAlloc.exit ]
  %.val2334 = phi ptr [ %.val23, %Vec_PtrPush.exit ], [ %.val24, %Vec_PtrAlloc.exit ]
  %16 = getelementptr i8, ptr %.val2334, i64 8
  %.val29.val = load ptr, ptr %16, align 8, !tbaa !38
  %17 = getelementptr inbounds nuw ptr, ptr %.val29.val, i64 %indvars.iv
  %18 = load ptr, ptr %17, align 8, !tbaa !39
  %19 = tail call ptr @Abc_ObjName(ptr noundef %18) #11
  %20 = icmp eq i32 %15, %14
  br i1 %20, label %21, label %.Vec_PtrGrow.exit11_crit_edge.i

.Vec_PtrGrow.exit11_crit_edge.i:                  ; preds = %.lr.ph
  %.pre.i = load ptr, ptr %12, align 8, !tbaa !38
  br label %Vec_PtrPush.exit

21:                                               ; preds = %.lr.ph
  %22 = icmp slt i32 %14, 16
  br i1 %22, label %23, label %30

23:                                               ; preds = %21
  %24 = load ptr, ptr %12, align 8, !tbaa !38
  %.not9.i.i = icmp eq ptr %24, null
  br i1 %.not9.i.i, label %27, label %25

25:                                               ; preds = %23
  %26 = tail call dereferenceable_or_null(128) ptr @realloc(ptr noundef nonnull %24, i64 noundef 128) #14
  br label %Vec_PtrGrow.exit.i

27:                                               ; preds = %23
  %28 = tail call noalias dereferenceable_or_null(128) ptr @malloc(i64 noundef 128) #13
  br label %Vec_PtrGrow.exit.i

Vec_PtrGrow.exit.i:                               ; preds = %27, %25
  %29 = phi ptr [ %26, %25 ], [ %28, %27 ]
  store ptr %29, ptr %12, align 8, !tbaa !38
  store i32 16, ptr %4, align 8, !tbaa !84
  br label %Vec_PtrPush.exit

30:                                               ; preds = %21
  %31 = shl nuw nsw i32 %14, 1
  %32 = load ptr, ptr %12, align 8, !tbaa !38
  %.not9.i10.i = icmp eq ptr %32, null
  %33 = zext nneg i32 %31 to i64
  %34 = shl nuw nsw i64 %33, 3
  br i1 %.not9.i10.i, label %37, label %35

35:                                               ; preds = %30
  %36 = tail call ptr @realloc(ptr noundef nonnull %32, i64 noundef %34) #14
  br label %39

37:                                               ; preds = %30
  %38 = tail call noalias ptr @malloc(i64 noundef %34) #13
  br label %39

39:                                               ; preds = %37, %35
  %40 = phi ptr [ %36, %35 ], [ %38, %37 ]
  store ptr %40, ptr %12, align 8, !tbaa !38
  store i32 %31, ptr %4, align 8, !tbaa !84
  br label %Vec_PtrPush.exit

Vec_PtrPush.exit:                                 ; preds = %.Vec_PtrGrow.exit11_crit_edge.i, %Vec_PtrGrow.exit.i, %39
  %41 = phi i32 [ %14, %.Vec_PtrGrow.exit11_crit_edge.i ], [ %31, %39 ], [ 16, %Vec_PtrGrow.exit.i ]
  %42 = phi ptr [ %.pre.i, %.Vec_PtrGrow.exit11_crit_edge.i ], [ %40, %39 ], [ %29, %Vec_PtrGrow.exit.i ]
  %43 = add nuw nsw i32 %15, 1
  store i32 %43, ptr %6, align 4, !tbaa !30
  %44 = zext nneg i32 %15 to i64
  %45 = getelementptr inbounds nuw ptr, ptr %42, i64 %44
  store ptr %19, ptr %45, align 8, !tbaa !39
  %indvars.iv.next = add nuw nsw i64 %indvars.iv, 1
  %.val23 = load ptr, ptr %2, align 8, !tbaa !33
  %46 = getelementptr i8, ptr %.val23, i64 4
  %.val23.val = load i32, ptr %46, align 4, !tbaa !30
  %47 = sext i32 %.val23.val to i64
  %48 = icmp slt i64 %indvars.iv.next, %47
  br i1 %48, label %.lr.ph, label %.critedge, !llvm.loop !85

.critedge:                                        ; preds = %Vec_PtrPush.exit
  %.pre.pre.pre = load ptr, ptr %12, align 8, !tbaa !38
  %49 = icmp eq i32 %15, 0
  br i1 %49, label %Vec_PtrSort.exit, label %50

50:                                               ; preds = %.critedge
  %51 = zext nneg i32 %43 to i64
  tail call void @qsort(ptr noundef %.pre.pre.pre, i64 noundef %51, i64 noundef 8, ptr noundef nonnull @Abc_NtkNamesCompare) #11
  %.val35.pre = load ptr, ptr %2, align 8, !tbaa !33
  br label %Vec_PtrSort.exit

Vec_PtrSort.exit:                                 ; preds = %Vec_PtrAlloc.exit, %.critedge, %50
  %.pre.pre51 = phi ptr [ %.pre.pre.pre, %.critedge ], [ %.pre.pre.pre, %50 ], [ %11, %Vec_PtrAlloc.exit ]
  %.val35 = phi ptr [ %.val23, %.critedge ], [ %.val35.pre, %50 ], [ %.val24, %Vec_PtrAlloc.exit ]
  %52 = getelementptr i8, ptr %.val35, i64 4
  %.val.val36 = load i32, ptr %52, align 4, !tbaa !30
  %53 = icmp sgt i32 %.val.val36, 1
  br i1 %53, label %.lr.ph39, label %._crit_edge

.lr.ph39:                                         ; preds = %Vec_PtrSort.exit
  %invariant.gep = getelementptr i8, ptr %.pre.pre51, i64 -8
  br label %54

54:                                               ; preds = %.lr.ph39, %61
  %.val46 = phi ptr [ %.val35, %.lr.ph39 ], [ %.val, %61 ]
  %indvars.iv41 = phi i64 [ 1, %.lr.ph39 ], [ %indvars.iv.next42, %61 ]
  %.038 = phi i32 [ 1, %.lr.ph39 ], [ %.1, %61 ]
  %gep = getelementptr ptr, ptr %invariant.gep, i64 %indvars.iv41
  %55 = load ptr, ptr %gep, align 8, !tbaa !39
  %56 = getelementptr inbounds nuw ptr, ptr %.pre.pre51, i64 %indvars.iv41
  %57 = load ptr, ptr %56, align 8, !tbaa !39
  %58 = tail call i32 @strcmp(ptr noundef nonnull dereferenceable(1) %55, ptr noundef nonnull dereferenceable(1) %57) #12
  %.not = icmp eq i32 %58, 0
  br i1 %.not, label %59, label %61

59:                                               ; preds = %54
  %60 = tail call i32 (ptr, ...) @printf(ptr noundef nonnull dereferenceable(1) @.str.24, ptr noundef nonnull %55, ptr noundef nonnull %57)
  %.val.pre = load ptr, ptr %2, align 8, !tbaa !33
  br label %61

61:                                               ; preds = %54, %59
  %.val = phi ptr [ %.val46, %54 ], [ %.val.pre, %59 ]
  %.1 = phi i32 [ %.038, %54 ], [ 0, %59 ]
  %indvars.iv.next42 = add nuw nsw i64 %indvars.iv41, 1
  %62 = getelementptr i8, ptr %.val, i64 4
  %.val.val = load i32, ptr %62, align 4, !tbaa !30
  %63 = sext i32 %.val.val to i64
  %64 = icmp slt i64 %indvars.iv.next42, %63
  br i1 %64, label %54, label %._crit_edge.thread, !llvm.loop !86

._crit_edge:                                      ; preds = %Vec_PtrSort.exit
  %.not.i30 = icmp eq ptr %.pre.pre51, null
  br i1 %.not.i30, label %Vec_PtrFree.exit, label %._crit_edge.thread

._crit_edge.thread:                               ; preds = %61, %._crit_edge
  %.0.lcssa54 = phi i32 [ 1, %._crit_edge ], [ %.1, %61 ]
  tail call void @free(ptr noundef nonnull %.pre.pre51) #11
  br label %Vec_PtrFree.exit

Vec_PtrFree.exit:                                 ; preds = %._crit_edge, %._crit_edge.thread
  %.0.lcssa55 = phi i32 [ 1, %._crit_edge ], [ %.0.lcssa54, %._crit_edge.thread ]
  tail call void @free(ptr noundef nonnull %4) #11
  ret i32 %.0.lcssa55
}